target datalayout = "e-m:e-p270:32:32-p271:32:32-p272:64:64-i64:64-i128:128-f80:128-n8:16:32:64-S128"
target triple = "x86_64-pc-linux-gnu"

%struct.Aig_Man_t_ = type { ptr, ptr, ptr, ptr, ptr, ptr, ptr, %struct.Aig_Obj_t_, i32, i32, i32, i32, i32, i32, [7 x i32], i32, ptr, i32, ptr, i32, ptr, i32, i32, i32, ptr, i32, i32, i32, i32, i32, ptr, ptr, i32, ptr, ptr, i32, ptr, ptr, i32, i32, i32, ptr, ptr, ptr, ptr, ptr, ptr, ptr, ptr, ptr, ptr, ptr, ptr, ptr, ptr, i32, ptr, ptr, ptr, ptr, i32, i64, i64, i64, ptr, ptr }
%struct.Aig_Obj_t_ = type { %union.anon, ptr, ptr, i64, i32, i32, %union.anon.0 }
%union.anon = type { ptr }
%union.anon.0 = type { ptr }

; Function Attrs: inlinehint nounwind uwtable
define internal ptr @Aig_ManGhost(ptr noundef %0) #2 {
  %2 = alloca ptr, align 8
  store ptr %0, ptr %2, align 8, !tbaa !3
  %3 = load ptr, ptr %2, align 8, !tbaa !3
  %4 = getelementptr inbounds nuw %struct.Aig_Man_t_, ptr %3, i32 0, i32 7
  ret ptr %4
}

; Function Attrs: inlinehint nounwind uwtable
define internal ptr @Aig_ObjCreateGhost(ptr noundef %0, ptr noundef %1, ptr noundef %2, i32 noundef %3) #2 {
  %5 = alloca ptr, align 8
  %6 = alloca ptr, align 8
  %7 = alloca ptr, align 8
  %8 = alloca i32, align 4
  %9 = alloca ptr, align 8
  store ptr %0, ptr %5, align 8, !tbaa !3
  store ptr %1, ptr %6, align 8, !tbaa !25
  store ptr %2, ptr %7, align 8, !tbaa !25
  store i32 %3, ptr %8, align 4, !tbaa !8
  call void @llvm.lifetime.start.p0(i64 8, ptr %9) #7
  %10 = load ptr, ptr %5, align 8, !tbaa !3
  %11 = call ptr @Aig_ManGhost(ptr noundef %10)
  store ptr %11, ptr %9, align 8, !tbaa !25
  %12 = load i32, ptr %8, align 4, !tbaa !8
  %13 = load ptr, ptr %9, align 8, !tbaa !25
  %14 = getelementptr inbounds nuw %struct.Aig_Obj_t_, ptr %13, i32 0, i32 3
  %15 = zext i32 %12 to i64
  %16 = load i64, ptr %14, align 8
  %17 = and i64 %15, 7
  %18 = and i64 %16, -8
  %19 = or i64 %18, %17
  store i64 %19, ptr %14, align 8
  %20 = load ptr, ptr %7, align 8, !tbaa !25
  %21 = icmp eq ptr %20, null
  br i1 %21, label %32, label %22

22:                                               ; preds = %4
  %23 = load ptr, ptr %6, align 8, !tbaa !25
  %24 = call ptr @Aig_Regular(ptr noundef %23)
  %25 = getelementptr inbounds nuw %struct.Aig_Obj_t_, ptr %24, i32 0, i32 5
  %26 = load i32, ptr %25, align 4, !tbaa !32
  %27 = load ptr, ptr %7, align 8, !tbaa !25
  %28 = call ptr @Aig_Regular(ptr noundef %27)
  %29 = getelementptr inbounds nuw %struct.Aig_Obj_t_, ptr %28, i32 0, i32 5
  %30 = load i32, ptr %29, align 4, !tbaa !32
  %31 = icmp slt i32 %26, %30
  br i1 %31, label %32, label %39

32:                                               ; preds = %22, %4
  %33 = load ptr, ptr %6, align 8, !tbaa !25
  %34 = load ptr, ptr %9, align 8, !tbaa !25
  %35 = getelementptr inbounds nuw %struct.Aig_Obj_t_, ptr %34, i32 0, i32 1
  store ptr %33, ptr %35, align 8, !tbaa !29
  %36 = load ptr, ptr %7, align 8, !tbaa !25
  %37 = load ptr, ptr %9, align 8, !tbaa !25
  %38 = getelementptr inbounds nuw %struct.Aig_Obj_t_, ptr %37, i32 0, i32 2
  store ptr %36, ptr %38, align 8, !tbaa !30
  br label %46

39:                                               ; preds = %22
  %40 = load ptr, ptr %7, align 8, !tbaa !25
  %41 = load ptr, ptr %9, align 8, !tbaa !25
  %42 = getelementptr inbounds nuw %struct.Aig_Obj_t_, ptr %41, i32 0, i32 1
  store ptr %40, ptr %42, align 8, !tbaa !29
  %43 = load ptr, ptr %6, align 8, !tbaa !25
  %44 = load ptr, ptr %9, align 8, !tbaa !25
  %45 = getelementptr inbounds nuw %struct.Aig_Obj_t_, ptr %44, i32 0, i32 2
  store ptr %43, ptr %45, align 8, !tbaa !30
  br label %46

46:                                               ; preds = %39, %32
  %47 = load ptr, ptr %9, align 8, !tbaa !25
  call void @llvm.lifetime.end.p0(i64 8, ptr %9) #7
  ret ptr %47
}

; Function Attrs: inlinehint nounwind uwtable
define internal i32 @Aig_IsComplement(ptr noundef %0) #2 {
  %2 = alloca ptr, align 8
  store ptr %0, ptr %2, align 8, !tbaa !25
  %3 = load ptr, ptr %2, align 8, !tbaa !25
  %4 = ptrtoint ptr %3 to i64
  %5 = and i64 %4, 1
  %6 = trunc i64 %5 to i32
  ret i32 %6
}

; Function Attrs: nounwind uwtable
define ptr @Aig_Or(ptr noundef %0, ptr noundef %1, ptr noundef %2) #0 {
  %4 = alloca ptr, align 8
  %5 = alloca ptr, align 8
  %6 = alloca ptr, align 8
  store ptr %0, ptr %4, align 8, !tbaa !3
  store ptr %1, ptr %5, align 8, !tbaa !25
  store ptr %2, ptr %6, align 8, !tbaa !25
  %7 = load ptr, ptr %4, align 8, !tbaa !3
  %8 = load ptr, ptr %5, align 8, !tbaa !25
  %9 = call ptr @Aig_Not(ptr noundef %8)
  %10 = load ptr, ptr %6, align 8, !tbaa !25
  %11 = call ptr @Aig_Not(ptr noundef %10)
  %12 = call ptr @Aig_And(ptr noundef %7, ptr noundef %9, ptr noundef %11)
  %13 = call ptr @Aig_Not(ptr noundef %12)
  ret ptr %13
}

; Function Attrs: inlinehint nounwind uwtable
define internal ptr @Aig_NotCond(ptr noundef %0, i32 noundef %1) #2 {
  %3 = alloca ptr, align 8
  %4 = alloca i32, align 4
  store ptr %0, ptr %3, align 8, !tbaa !25
  store i32 %1, ptr %4, align 4, !tbaa !8
  %5 = load ptr, ptr %3, align 8, !tbaa !25
  %6 = ptrtoint ptr %5 to i64
  %7 = load i32, ptr %4, align 4, !tbaa !8
  %8 = sext i32 %7 to i64
  %9 = xor i64 %6, %8
  %10 = inttoptr i64 %9 to ptr
  ret ptr %10
}

; Function Attrs: inlinehint nounwind uwtable
define internal ptr @Aig_Regular(ptr noundef %0) #2 {
  %2 = alloca ptr, align 8
  store ptr %0, ptr %2, align 8, !tbaa !25
  %3 = load ptr, ptr %2, align 8, !tbaa !25
  %4 = ptrtoint ptr %3 to i64
  %5 = and i64 %4, -2
  %6 = inttoptr i64 %5 to ptr
  ret ptr %6
}

; Function Attrs: inlinehint nounwind uwtable
define internal ptr @Aig_Not(ptr noundef %0) #2 {
  %2 = alloca ptr, align 8
  store ptr %0, ptr %2, align 8, !tbaa !25
  %3 = load ptr, ptr %2, align 8, !tbaa !25
  %4 = ptrtoint ptr %3 to i64
  %5 = xor i64 %4, 1
  %6 = inttoptr i64 %5 to ptr
  ret ptr %6
}

; Function Attrs: nounwind uwtable
define ptr @Aig_Exor(ptr noundef %0, ptr noundef %1, ptr noundef %2) #0 {
  %4 = alloca ptr, align 8
  %5 = alloca ptr, align 8
  %6 = alloca ptr, align 8
  %7 = alloca ptr, align 8
  %8 = alloca ptr, align 8
  %9 = alloca ptr, align 8
  %10 = alloca i32, align 4
  %11 = alloca i32, align 4
  store ptr %0, ptr %5, align 8, !tbaa !3
  store ptr %1, ptr %6, align 8, !tbaa !25
  store ptr %2, ptr %7, align 8, !tbaa !25
  call void @llvm.lifetime.start.p0(i64 8, ptr %8) #7
  call void @llvm.lifetime.start.p0(i64 8, ptr %9) #7
  call void @llvm.lifetime.start.p0(i64 4, ptr %10) #7
  %12 = load ptr, ptr %6, align 8, !tbaa !25
  %13 = load ptr, ptr %7, align 8, !tbaa !25
  %14 = icmp eq ptr %12, %13
  br i1 %14, label %15, label %20

15:                                               ; preds = %3
  %16 = load ptr, ptr %5, align 8, !tbaa !3
  %17 = getelementptr inbounds nuw %struct.Aig_Man_t_, ptr %16, i32 0, i32 6
  %18 = load ptr, ptr %17, align 8, !tbaa !26
  %19 = call ptr @Aig_Not(ptr noundef %18)
  store ptr %19, ptr %4, align 8
  store i32 1, ptr %11, align 4
  br label %108

20:                                               ; preds = %3
  %21 = load ptr, ptr %6, align 8, !tbaa !25
  %22 = load ptr, ptr %7, align 8, !tbaa !25
  %23 = call ptr @Aig_Not(ptr noundef %22)
  %24 = icmp eq ptr %21, %23
  br i1 %24, label %25, label %29

25:                                               ; preds = %20
  %26 = load ptr, ptr %5, align 8, !tbaa !3
  %27 = getelementptr inbounds nuw %struct.Aig_Man_t_, ptr %26, i32 0, i32 6
  %28 = load ptr, ptr %27, align 8, !tbaa !26
  store ptr %28, ptr %4, align 8
  store i32 1, ptr %11, align 4
  br label %108

29:                                               ; preds = %20
  %30 = load ptr, ptr %6, align 8, !tbaa !25
  %31 = call ptr @Aig_Regular(ptr noundef %30)
  %32 = load ptr, ptr %5, align 8, !tbaa !3
  %33 = getelementptr inbounds nuw %struct.Aig_Man_t_, ptr %32, i32 0, i32 6
  %34 = load ptr, ptr %33, align 8, !tbaa !26
  %35 = icmp eq ptr %31, %34
  br i1 %35, label %36, label %45

36:                                               ; preds = %29
  %37 = load ptr, ptr %7, align 8, !tbaa !25
  %38 = load ptr, ptr %6, align 8, !tbaa !25
  %39 = load ptr, ptr %5, align 8, !tbaa !3
  %40 = getelementptr inbounds nuw %struct.Aig_Man_t_, ptr %39, i32 0, i32 6
  %41 = load ptr, ptr %40, align 8, !tbaa !26
  %42 = icmp eq ptr %38, %41
  %43 = zext i1 %42 to i32
  %44 = call ptr @Aig_NotCond(ptr noundef %37, i32 noundef %43)
  store ptr %44, ptr %4, align 8
  store i32 1, ptr %11, align 4
  br label %108

45:                                               ; preds = %29
  %46 = load ptr, ptr %7, align 8, !tbaa !25
  %47 = call ptr @Aig_Regular(ptr noundef %46)
  %48 = load ptr, ptr %5, align 8, !tbaa !3
  %49 = getelementptr inbounds nuw %struct.Aig_Man_t_, ptr %48, i32 0, i32 6
  %50 = load ptr, ptr %49, align 8, !tbaa !26
  %51 = icmp eq ptr %47, %50
  br i1 %51, label %52, label %61

52:                                               ; preds = %45
  %53 = load ptr, ptr %6, align 8, !tbaa !25
  %54 = load ptr, ptr %7, align 8, !tbaa !25
  %55 = load ptr, ptr %5, align 8, !tbaa !3
  %56 = getelementptr inbounds nuw %struct.Aig_Man_t_, ptr %55, i32 0, i32 6
  %57 = load ptr, ptr %56, align 8, !tbaa !26
  %58 = icmp eq ptr %54, %57
  %59 = zext i1 %58 to i32
  %60 = call ptr @Aig_NotCond(ptr noundef %53, i32 noundef %59)
  store ptr %60, ptr %4, align 8
  store i32 1, ptr %11, align 4
  br label %108

61:                                               ; preds = %45
  %62 = load ptr, ptr %5, align 8, !tbaa !3
  %63 = getelementptr inbounds nuw %struct.Aig_Man_t_, ptr %62, i32 0, i32 39
  %64 = load i32, ptr %63, align 4, !tbaa !28
  %65 = icmp ne i32 %64, 0
  br i1 %65, label %79, label %66

66:                                               ; preds = %61
  %67 = load ptr, ptr %5, align 8, !tbaa !3
  %68 = load ptr, ptr %5, align 8, !tbaa !3
  %69 = load ptr, ptr %6, align 8, !tbaa !25
  %70 = load ptr, ptr %7, align 8, !tbaa !25
  %71 = call ptr @Aig_Not(ptr noundef %70)
  %72 = call ptr @Aig_And(ptr noundef %68, ptr noundef %69, ptr noundef %71)
  %73 = load ptr, ptr %5, align 8, !tbaa !3
  %74 = load ptr, ptr %6, align 8, !tbaa !25
  %75 = call ptr @Aig_Not(ptr noundef %74)
  %76 = load ptr, ptr %7, align 8, !tbaa !25
  %77 = call ptr @Aig_And(ptr noundef %73, ptr noundef %75, ptr noundef %76)
  %78 = call ptr @Aig_Or(ptr noundef %67, ptr noundef %72, ptr noundef %77)
  store ptr %78, ptr %4, align 8
  store i32 1, ptr %11, align 4
  br label %108

79:                                               ; preds = %61
  %80 = load ptr, ptr %6, align 8, !tbaa !25
  %81 = call i32 @Aig_IsComplement(ptr noundef %80)
  %82 = load ptr, ptr %7, align 8, !tbaa !25
  %83 = call i32 @Aig_IsComplement(ptr noundef %82)
  %84 = xor i32 %81, %83
  store i32 %84, ptr %10, align 4, !tbaa !8
  %85 = load ptr, ptr %6, align 8, !tbaa !25
  %86 = call ptr @Aig_Regular(ptr noundef %85)
  store ptr %86, ptr %6, align 8, !tbaa !25
  %87 = load ptr, ptr %7, align 8, !tbaa !25
  %88 = call ptr @Aig_Regular(ptr noundef %87)
  store ptr %88, ptr %7, align 8, !tbaa !25
  %89 = load ptr, ptr %5, align 8, !tbaa !3
  %90 = load ptr, ptr %6, align 8, !tbaa !25
  %91 = load ptr, ptr %7, align 8, !tbaa !25
  %92 = call ptr @Aig_ObjCreateGhost(ptr noundef %89, ptr noundef %90, ptr noundef %91, i32 noundef 6)
  store ptr %92, ptr %8, align 8, !tbaa !25
  %93 = load ptr, ptr %5, align 8, !tbaa !3
  %94 = load ptr, ptr %8, align 8, !tbaa !25
  %95 = call ptr @Aig_TableLookup(ptr noundef %93, ptr noundef %94)
  store ptr %95, ptr %9, align 8, !tbaa !25
  %96 = icmp ne ptr %95, null
  br i1 %96, label %97, label %101

97:                                               ; preds = %79
  %98 = load ptr, ptr %9, align 8, !tbaa !25
  %99 = load i32, ptr %10, align 4, !tbaa !8
  %100 = call ptr @Aig_NotCond(ptr noundef %98, i32 noundef %99)
  store ptr %100, ptr %4, align 8
  store i32 1, ptr %11, align 4
  br label %108

101:                                              ; preds = %79
  %102 = load ptr, ptr %5, align 8, !tbaa !3
  %103 = load ptr, ptr %8, align 8, !tbaa !25
  %104 = call ptr @Aig_ObjCreate(ptr noundef %102, ptr noundef %103)
  store ptr %104, ptr %9, align 8, !tbaa !25
  %105 = load ptr, ptr %9, align 8, !tbaa !25
  %106 = load i32, ptr %10, align 4, !tbaa !8
  %107 = call ptr @Aig_NotCond(ptr noundef %105, i32 noundef %106)
  store ptr %107, ptr %4, align 8
  store i32 1, ptr %11, align 4
  br label %108

108:                                              ; preds = %101, %97, %66, %52, %36, %25, %15
  call void @llvm.lifetime.end.p0(i64 4, ptr %10) #7
  call void @llvm.lifetime.end.p0(i64 8, ptr %9) #7
  call void @llvm.lifetime.end.p0(i64 8, ptr %8) #7
  %109 = load ptr, ptr %4, align 8
  ret ptr %109
}