; Function Attrs: nounwind uwtable
define ptr @Aig_Exor(ptr noundef %0, ptr noundef %1, ptr noundef %2) local_unnamed_addr #0 {
  %4 = icmp eq ptr %1, %2
  br i1 %4, label %5, label %11

5:                                                ; preds = %3
  %6 = getelementptr inbounds nuw i8, ptr %0, i64 48
  %7 = load ptr, ptr %6, align 8, !tbaa !27
  %8 = ptrtoint ptr %7 to i64
  %9 = xor i64 %8, 1
  %10 = inttoptr i64 %9 to ptr
  br label %85

11:                                               ; preds = %3
  %12 = ptrtoint ptr %2 to i64
  %13 = xor i64 %12, 1
  %14 = inttoptr i64 %13 to ptr
  %15 = icmp eq ptr %1, %14
  br i1 %15, label %16, label %19

16:                                               ; preds = %11
  %17 = getelementptr inbounds nuw i8, ptr %0, i64 48
  %18 = load ptr, ptr %17, align 8, !tbaa !27
  br label %85

19:                                               ; preds = %11
  %20 = ptrtoint ptr %1 to i64
  %21 = and i64 %20, -2
  %22 = inttoptr i64 %21 to ptr
  %23 = getelementptr inbounds nuw i8, ptr %0, i64 48
  %24 = load ptr, ptr %23, align 8, !tbaa !27
  %25 = icmp eq ptr %24, %22
  br i1 %25, label %26, label %31

26:                                               ; preds = %19
  %27 = icmp eq ptr %1, %22
  %28 = zext i1 %27 to i64
  %29 = xor i64 %28, %12
  %30 = inttoptr i64 %29 to ptr
  br label %85

31:                                               ; preds = %19
  %32 = and i64 %12, -2
  %33 = inttoptr i64 %32 to ptr
  %34 = icmp eq ptr %24, %33
  br i1 %34, label %35, label %40

35:                                               ; preds = %31
  %36 = icmp eq ptr %2, %24
  %37 = zext i1 %36 to i64
  %38 = xor i64 %37, %20
  %39 = inttoptr i64 %38 to ptr
  br label %85

40:                                               ; preds = %31
  %41 = getelementptr inbounds nuw i8, ptr %0, i64 316
  %42 = load i32, ptr %41, align 4, !tbaa !31
  %.not = icmp eq i32 %42, 0
  br i1 %.not, label %43, label %58

43:                                               ; preds = %40
  %44 = tail call ptr @Aig_And(ptr noundef nonnull %0, ptr noundef %1, ptr noundef %14)
  %45 = xor i64 %20, 1
  %46 = inttoptr i64 %45 to ptr
  %47 = tail call ptr @Aig_And(ptr noundef nonnull %0, ptr noundef %46, ptr noundef %2)
  %48 = ptrtoint ptr %44 to i64
  %49 = xor i64 %48, 1
  %50 = inttoptr i64 %49 to ptr
  %51 = ptrtoint ptr %47 to i64
  %52 = xor i64 %51, 1
  %53 = inttoptr i64 %52 to ptr
  %54 = tail call ptr @Aig_And(ptr noundef nonnull %0, ptr noundef %50, ptr noundef %53)
  %55 = ptrtoint ptr %54 to i64
  %56 = xor i64 %55, 1
  %57 = inttoptr i64 %56 to ptr
  br label %85

58:                                               ; preds = %40
  %59 = xor i64 %12, %20
  %60 = and i64 %59, 1
  %61 = getelementptr inbounds nuw i8, ptr %0, i64 80
  %62 = load i64, ptr %61, align 8
  %63 = and i64 %62, -8
  %64 = or disjoint i64 %63, 6
  store i64 %64, ptr %61, align 8
  %65 = icmp eq i64 %32, 0
  br i1 %65, label %Aig_ObjCreateGhost.exit, label %66

66:                                               ; preds = %58
  %67 = getelementptr inbounds nuw i8, ptr %22, i64 36
  %68 = load i32, ptr %67, align 4, !tbaa !32
  %69 = getelementptr inbounds nuw i8, ptr %33, i64 36
  %70 = load i32, ptr %69, align 4, !tbaa !32
  %71 = icmp slt i32 %68, %70
  %spec.select.i = select i1 %71, ptr %22, ptr %33
  %spec.select17.i = select i1 %71, ptr %33, ptr %22
  br label %Aig_ObjCreateGhost.exit

Aig_ObjCreateGhost.exit:                          ; preds = %58, %66
  %.sink15.i = phi ptr [ %22, %58 ], [ %spec.select.i, %66 ]
  %.sink.i = phi ptr [ null, %58 ], [ %spec.select17.i, %66 ]
  %72 = getelementptr inbounds nuw i8, ptr %0, i64 64
  store ptr %.sink15.i, ptr %72, align 8, !tbaa !29
  %73 = getelementptr inbounds nuw i8, ptr %0, i64 72
  store ptr %.sink.i, ptr %73, align 8, !tbaa !30
  %74 = getelementptr inbounds nuw i8, ptr %0, i64 56
  %75 = tail call ptr @Aig_TableLookup(ptr noundef nonnull %0, ptr noundef nonnull %74) #7
  %.not44 = icmp eq ptr %75, null
  br i1 %.not44, label %80, label %76

76:                                               ; preds = %Aig_ObjCreateGhost.exit
  %77 = ptrtoint ptr %75 to i64
  %78 = xor i64 %60, %77
  %79 = inttoptr i64 %78 to ptr
  br label %85

80:                                               ; preds = %Aig_ObjCreateGhost.exit
  %81 = tail call ptr @Aig_ObjCreate(ptr noundef nonnull %0, ptr noundef nonnull %74) #7
  %82 = ptrtoint ptr %81 to i64
  %83 = xor i64 %60, %82
  %84 = inttoptr i64 %83 to ptr
  br label %85

85:                                               ; preds = %80, %76, %43, %35, %26, %16, %5
  %.0 = phi ptr [ %10, %5 ], [ %18, %16 ], [ %30, %26 ], [ %39, %35 ], [ %79, %76 ], [ %84, %80 ], [ %57, %43 ]
  ret ptr %.0
}